target datalayout = "e-m:e-p270:32:32-p271:32:32-p272:64:64-i64:64-i128:128-f80:128-n8:16:32:64-S128"
target triple = "x86_64-pc-linux-gnu"

%struct._object = type { %union.anon, ptr }
%union.anon = type { i64 }
%struct.PyVarObject = type { %struct._object, i64 }
%struct.dequeobject = type { %struct.PyVarObject, ptr, ptr, i64, i64, i64, i64, i64, [16 x ptr], ptr }

@_Py_NoneStruct = external global %struct._object, align 8

; Function Attrs: nounwind uwtable
define internal ptr @deque_get_maxlen(ptr noundef %0, ptr noundef %1) #0 {
  %3 = alloca ptr, align 8
  %4 = alloca ptr, align 8
  %5 = alloca ptr, align 8
  store ptr %0, ptr %4, align 8, !tbaa !43
  store ptr %1, ptr %5, align 8, !tbaa !9
  %6 = load ptr, ptr %4, align 8, !tbaa !43
  %7 = getelementptr inbounds nuw %struct.dequeobject, ptr %6, i32 0, i32 6
  %8 = load i64, ptr %7, align 8, !tbaa !55
  %9 = icmp slt i64 %8, 0
  br i1 %9, label %10, label %11

10:                                               ; preds = %2
  store ptr @_Py_NoneStruct, ptr %3, align 8
  br label %16

11:                                               ; preds = %2
  %12 = load ptr, ptr %4, align 8, !tbaa !43
  %13 = getelementptr inbounds nuw %struct.dequeobject, ptr %12, i32 0, i32 6
  %14 = load i64, ptr %13, align 8, !tbaa !55
  %15 = call ptr @PyLong_FromSsize_t(i64 noundef %14)
  store ptr %15, ptr %3, align 8
  br label %16

16:                                               ; preds = %11, %10
  %17 = load ptr, ptr %3, align 8
  ret ptr %17
}