; Function Attrs: nounwind uwtable
define internal ptr @deque_get_maxlen(ptr noundef readonly captures(none) %0, ptr readnone captures(none) %1) #0 {
  %3 = getelementptr inbounds nuw i8, ptr %0, i64 64
  %4 = load i64, ptr %3, align 8, !tbaa !45
  %5 = icmp slt i64 %4, 0
  br i1 %5, label %8, label %6

6:                                                ; preds = %2
  %7 = tail call ptr @PyLong_FromSsize_t(i64 noundef %4) #9
  br label %8

8:                                                ; preds = %2, %6
  %.0 = phi ptr [ %7, %6 ], [ @_Py_NoneStruct, %2 ]
  ret ptr %.0
}